; Function Attrs: mustprogress nounwind null_pointer_is_valid sspstrong uwtable
define void @_ZN17Mtp3SummaryDialogD2Ev(ptr noundef align 8 dereferenceable_or_null(152) initializes((0, 8), (16, 24)) %0) unnamed_addr #5 align 2 {
  store ptr getelementptr inbounds nuw inrange(-16, 496) (i8, ptr @_ZTV17Mtp3SummaryDialog, i64 16), ptr %0, align 8
  %2 = getelementptr inbounds nuw i8, ptr %0, i64 16
  store ptr getelementptr inbounds nuw inrange(-16, 64) (i8, ptr @_ZTV17Mtp3SummaryDialog, i64 528), ptr %2, align 8
  %3 = getelementptr inbounds nuw i8, ptr %0, i64 144
  %4 = load ptr, ptr %3, align 8
  %5 = icmp eq ptr %4, null
  br i1 %5, label %7, label %6

6:                                                ; preds = %1
  tail call void @_ZdlPvm(ptr noundef nonnull %4, i64 noundef 24) #18
  br label %7

7:                                                ; preds = %6, %1
  store ptr getelementptr inbounds nuw inrange(-16, 496) (i8, ptr @_ZTV15WiresharkDialog, i64 16), ptr %0, align 8
  store ptr getelementptr inbounds nuw inrange(-16, 64) (i8, ptr @_ZTV15WiresharkDialog, i64 528), ptr %2, align 8
  %8 = getelementptr inbounds nuw i8, ptr %0, i64 112
  %9 = load ptr, ptr %8, align 8
  %.not.i.i.i.i = icmp eq ptr %9, null
  br i1 %.not.i.i.i.i, label %_ZN5QListIPvED2Ev.exit.i, label %_ZN17QArrayDataPointerIPvE5derefEv.exit.i.i.i

_ZN17QArrayDataPointerIPvE5derefEv.exit.i.i.i:    ; preds = %7
  %10 = atomicrmw sub ptr %9, i32 1 seq_cst, align 4
  %.not.i.i.i = icmp eq i32 %10, 1
  br i1 %.not.i.i.i, label %11, label %_ZN5QListIPvED2Ev.exit.i

11:                                               ; preds = %_ZN17QArrayDataPointerIPvE5derefEv.exit.i.i.i
  %12 = load ptr, ptr %8, align 8
  tail call void @_ZN10QArrayData10deallocateEPS_xx(ptr noundef %12, i64 noundef 8, i64 noundef 8) #17
  br label %_ZN5QListIPvED2Ev.exit.i

_ZN5QListIPvED2Ev.exit.i:                         ; preds = %11, %_ZN17QArrayDataPointerIPvE5derefEv.exit.i.i.i, %7
  %13 = getelementptr inbounds nuw i8, ptr %0, i64 88
  %14 = load ptr, ptr %13, align 8
  %.not.i.i.i1.i = icmp eq ptr %14, null
  br i1 %.not.i.i.i1.i, label %_ZN15WiresharkDialogD2Ev.exit, label %_ZN17QArrayDataPointerIDsE5derefEv.exit.i.i.i

_ZN17QArrayDataPointerIDsE5derefEv.exit.i.i.i:    ; preds = %_ZN5QListIPvED2Ev.exit.i
  %15 = atomicrmw sub ptr %14, i32 1 seq_cst, align 4
  %.not.i.i2.i = icmp eq i32 %15, 1
  br i1 %.not.i.i2.i, label %16, label %_ZN15WiresharkDialogD2Ev.exit

16:                                               ; preds = %_ZN17QArrayDataPointerIDsE5derefEv.exit.i.i.i
  %17 = load ptr, ptr %13, align 8
  tail call void @_ZN10QArrayData10deallocateEPS_xx(ptr noundef %17, i64 noundef 2, i64 noundef 8) #17
  br label %_ZN15WiresharkDialogD2Ev.exit

_ZN15WiresharkDialogD2Ev.exit:                    ; preds = %_ZN5QListIPvED2Ev.exit.i, %_ZN17QArrayDataPointerIDsE5derefEv.exit.i.i.i, %16
  tail call void @_ZN19GeometryStateDialogD2Ev(ptr noundef align 8 dereferenceable_or_null(141) %0) #17
  ret void
}